target datalayout = "e-m:e-p270:32:32-p271:32:32-p272:64:64-i64:64-i128:128-f80:128-n8:16:32:64-S128"
target triple = "x86_64-pc-linux-gnu"

%struct.DdManager = type { %struct.DdNode, ptr, ptr, ptr, ptr, ptr, ptr, ptr, i32, i32, double, double, double, i32, i32, i32, i32, i32, i32, ptr, ptr, %struct.DdSubtable, i32, i32, i32, i32, i32, i32, i32, double, i32, i32, i32, ptr, i64, double, i32, ptr, ptr, ptr, ptr, ptr, ptr, ptr, i32, ptr, ptr, ptr, ptr, ptr, ptr, i32, i32, i32, double, i32, i32, i32, i32, double, double, i32, i32, i32, i32, i32, i32, i32, i32, i32, ptr, ptr, i32, i32, i32, i32, i32, i32, ptr, ptr, ptr, ptr, ptr, ptr, ptr, ptr, i32, i64, i64, i64, i32, i64, i64, double, double, double, double, double, double, i32, ptr, ptr, i64 }
%struct.DdNode = type { i32, i32, ptr, %union.anon, i64 }
%union.anon = type { %struct.DdChildren }
%struct.DdChildren = type { ptr, ptr }
%struct.DdSubtable = type { ptr, i32, i32, i32, i32, i32, i32, i32, i32, i32, i32, i32 }

; Function Attrs: nounwind uwtable
define internal ptr @separateCube(ptr noundef %0, ptr noundef %1, ptr noundef %2) #0 {
  %4 = alloca ptr, align 8
  %5 = alloca ptr, align 8
  %6 = alloca ptr, align 8
  %7 = alloca ptr, align 8
  %8 = alloca ptr, align 8
  %9 = alloca ptr, align 8
  store ptr %0, ptr %5, align 8
  store ptr %1, ptr %6, align 8
  store ptr %2, ptr %7, align 8
  %10 = load ptr, ptr %6, align 8
  %11 = ptrtoint ptr %10 to i64
  %12 = and i64 %11, -2
  %13 = inttoptr i64 %12 to ptr
  %14 = getelementptr inbounds %struct.DdNode, ptr %13, i32 0, i32 0
  %15 = load i32, ptr %14, align 8
  %16 = icmp eq i32 %15, 2147483647
  br i1 %16, label %17, label %26

17:                                               ; preds = %3
  %18 = load ptr, ptr %6, align 8
  %19 = load ptr, ptr %5, align 8
  %20 = getelementptr inbounds %struct.DdManager, ptr %19, i32 0, i32 1
  %21 = load ptr, ptr %20, align 8
  %22 = icmp eq ptr %18, %21
  %23 = select i1 %22, double 0.000000e+00, double 0x41E0000000000000
  %24 = load ptr, ptr %7, align 8
  store double %23, ptr %24, align 8
  %25 = load ptr, ptr %6, align 8
  store ptr %25, ptr %4, align 8
  br label %81

26:                                               ; preds = %3
  %27 = load ptr, ptr %6, align 8
  %28 = getelementptr inbounds %struct.DdNode, ptr %27, i32 0, i32 3
  %29 = getelementptr inbounds %struct.DdChildren, ptr %28, i32 0, i32 0
  %30 = load ptr, ptr %29, align 8
  store ptr %30, ptr %9, align 8
  %31 = load ptr, ptr %9, align 8
  %32 = ptrtoint ptr %31 to i64
  %33 = and i64 %32, -2
  %34 = inttoptr i64 %33 to ptr
  %35 = getelementptr inbounds %struct.DdNode, ptr %34, i32 0, i32 0
  %36 = load i32, ptr %35, align 8
  %37 = icmp eq i32 %36, 2147483647
  br i1 %37, label %38, label %61

38:                                               ; preds = %26
  %39 = load ptr, ptr %9, align 8
  %40 = getelementptr inbounds %struct.DdNode, ptr %39, i32 0, i32 3
  %41 = load double, ptr %40, align 8
  %42 = fcmp ole double %41, 0.000000e+00
  br i1 %42, label %43, label %61

43:                                               ; preds = %38
  %44 = load ptr, ptr %9, align 8
  %45 = getelementptr inbounds %struct.DdNode, ptr %44, i32 0, i32 3
  %46 = load double, ptr %45, align 8
  %47 = fneg double %46
  %48 = load ptr, ptr %7, align 8
  store double %47, ptr %48, align 8
  %49 = load ptr, ptr %5, align 8
  %50 = load ptr, ptr %6, align 8
  %51 = getelementptr inbounds %struct.DdNode, ptr %50, i32 0, i32 0
  %52 = load i32, ptr %51, align 8
  %53 = load ptr, ptr %5, align 8
  %54 = getelementptr inbounds %struct.DdManager, ptr %53, i32 0, i32 2
  %55 = load ptr, ptr %54, align 8
  %56 = load ptr, ptr %6, align 8
  %57 = getelementptr inbounds %struct.DdNode, ptr %56, i32 0, i32 3
  %58 = getelementptr inbounds %struct.DdChildren, ptr %57, i32 0, i32 1
  %59 = load ptr, ptr %58, align 8
  %60 = call ptr @cuddUniqueInter(ptr noundef %49, i32 noundef %52, ptr noundef %55, ptr noundef %59)
  store ptr %60, ptr %8, align 8
  br label %79

61:                                               ; preds = %38, %26
  %62 = load ptr, ptr %6, align 8
  %63 = getelementptr inbounds %struct.DdNode, ptr %62, i32 0, i32 3
  %64 = getelementptr inbounds %struct.DdChildren, ptr %63, i32 0, i32 1
  %65 = load ptr, ptr %64, align 8
  %66 = getelementptr inbounds %struct.DdNode, ptr %65, i32 0, i32 3
  %67 = load double, ptr %66, align 8
  %68 = fneg double %67
  %69 = load ptr, ptr %7, align 8
  store double %68, ptr %69, align 8
  %70 = load ptr, ptr %5, align 8
  %71 = load ptr, ptr %6, align 8
  %72 = getelementptr inbounds %struct.DdNode, ptr %71, i32 0, i32 0
  %73 = load i32, ptr %72, align 8
  %74 = load ptr, ptr %9, align 8
  %75 = load ptr, ptr %5, align 8
  %76 = getelementptr inbounds %struct.DdManager, ptr %75, i32 0, i32 2
  %77 = load ptr, ptr %76, align 8
  %78 = call ptr @cuddUniqueInter(ptr noundef %70, i32 noundef %73, ptr noundef %74, ptr noundef %77)
  store ptr %78, ptr %8, align 8
  br label %79

79:                                               ; preds = %61, %43
  %80 = load ptr, ptr %8, align 8
  store ptr %80, ptr %4, align 8
  br label %81

81:                                               ; preds = %79, %17
  %82 = load ptr, ptr %4, align 8
  ret ptr %82
}

; Function Attrs: nounwind uwtable
define ptr @Cudd_bddClosestCube(ptr noundef %0, ptr noundef %1, ptr noundef %2, ptr noundef %3) #0 {
  %5 = alloca ptr, align 8
  %6 = alloca ptr, align 8
  %7 = alloca ptr, align 8
  %8 = alloca ptr, align 8
  %9 = alloca ptr, align 8
  %10 = alloca ptr, align 8
  %11 = alloca ptr, align 8
  %12 = alloca double, align 8
  store ptr %0, ptr %6, align 8
  store ptr %1, ptr %7, align 8
  store ptr %2, ptr %8, align 8
  store ptr %3, ptr %9, align 8
  br label %13

13:                                               ; preds = %20, %4
  %14 = load ptr, ptr %6, align 8
  %15 = getelementptr inbounds %struct.DdManager, ptr %14, i32 0, i32 55
  store i32 0, ptr %15, align 8
  %16 = load ptr, ptr %6, align 8
  %17 = load ptr, ptr %7, align 8
  %18 = load ptr, ptr %8, align 8
  %19 = call ptr @cuddBddClosestCube(ptr noundef %16, ptr noundef %17, ptr noundef %18, double noundef 0x41E0000000000000)
  store ptr %19, ptr %10, align 8
  br label %20

20:                                               ; preds = %13
  %21 = load ptr, ptr %6, align 8
  %22 = getelementptr inbounds %struct.DdManager, ptr %21, i32 0, i32 55
  %23 = load i32, ptr %22, align 8
  %24 = icmp eq i32 %23, 1
  br i1 %24, label %13, label %25, !llvm.loop !19

25:                                               ; preds = %20
  %26 = load ptr, ptr %10, align 8
  %27 = icmp eq ptr %26, null
  br i1 %27, label %28, label %29

28:                                               ; preds = %25
  store ptr null, ptr %5, align 8
  br label %102

29:                                               ; preds = %25
  %30 = load ptr, ptr %10, align 8
  %31 = ptrtoint ptr %30 to i64
  %32 = and i64 %31, -2
  %33 = inttoptr i64 %32 to ptr
  %34 = getelementptr inbounds %struct.DdNode, ptr %33, i32 0, i32 1
  %35 = load i32, ptr %34, align 4
  %36 = add i32 %35, 1
  store i32 %36, ptr %34, align 4
  br label %37

37:                                               ; preds = %43, %29
  %38 = load ptr, ptr %6, align 8
  %39 = getelementptr inbounds %struct.DdManager, ptr %38, i32 0, i32 55
  store i32 0, ptr %39, align 8
  %40 = load ptr, ptr %6, align 8
  %41 = load ptr, ptr %10, align 8
  %42 = call ptr @separateCube(ptr noundef %40, ptr noundef %41, ptr noundef %12)
  store ptr %42, ptr %11, align 8
  br label %43

43:                                               ; preds = %37
  %44 = load ptr, ptr %6, align 8
  %45 = getelementptr inbounds %struct.DdManager, ptr %44, i32 0, i32 55
  %46 = load i32, ptr %45, align 8
  %47 = icmp eq i32 %46, 1
  br i1 %47, label %37, label %48, !llvm.loop !20

48:                                               ; preds = %43
  %49 = load ptr, ptr %11, align 8
  %50 = icmp eq ptr %49, null
  br i1 %50, label %51, label %54

51:                                               ; preds = %48
  %52 = load ptr, ptr %6, align 8
  %53 = load ptr, ptr %10, align 8
  call void @Cudd_RecursiveDeref(ptr noundef %52, ptr noundef %53)
  store ptr null, ptr %5, align 8
  br label %102

54:                                               ; preds = %48
  %55 = load ptr, ptr %11, align 8
  %56 = ptrtoint ptr %55 to i64
  %57 = and i64 %56, -2
  %58 = inttoptr i64 %57 to ptr
  %59 = getelementptr inbounds %struct.DdNode, ptr %58, i32 0, i32 1
  %60 = load i32, ptr %59, align 4
  %61 = add i32 %60, 1
  store i32 %61, ptr %59, align 4
  %62 = load ptr, ptr %6, align 8
  %63 = load ptr, ptr %10, align 8
  call void @Cudd_RecursiveDeref(ptr noundef %62, ptr noundef %63)
  br label %64

64:                                               ; preds = %70, %54
  %65 = load ptr, ptr %6, align 8
  %66 = getelementptr inbounds %struct.DdManager, ptr %65, i32 0, i32 55
  store i32 0, ptr %66, align 8
  %67 = load ptr, ptr %6, align 8
  %68 = load ptr, ptr %11, align 8
  %69 = call ptr @cuddAddBddDoPattern(ptr noundef %67, ptr noundef %68)
  store ptr %69, ptr %10, align 8
  br label %70

70:                                               ; preds = %64
  %71 = load ptr, ptr %6, align 8
  %72 = getelementptr inbounds %struct.DdManager, ptr %71, i32 0, i32 55
  %73 = load i32, ptr %72, align 8
  %74 = icmp eq i32 %73, 1
  br i1 %74, label %64, label %75, !llvm.loop !21

75:                                               ; preds = %70
  %76 = load ptr, ptr %10, align 8
  %77 = icmp eq ptr %76, null
  br i1 %77, label %78, label %81

78:                                               ; preds = %75
  %79 = load ptr, ptr %6, align 8
  %80 = load ptr, ptr %11, align 8
  call void @Cudd_RecursiveDeref(ptr noundef %79, ptr noundef %80)
  store ptr null, ptr %5, align 8
  br label %102

81:                                               ; preds = %75
  %82 = load ptr, ptr %10, align 8
  %83 = ptrtoint ptr %82 to i64
  %84 = and i64 %83, -2
  %85 = inttoptr i64 %84 to ptr
  %86 = getelementptr inbounds %struct.DdNode, ptr %85, i32 0, i32 1
  %87 = load i32, ptr %86, align 4
  %88 = add i32 %87, 1
  store i32 %88, ptr %86, align 4
  %89 = load ptr, ptr %6, align 8
  %90 = load ptr, ptr %11, align 8
  call void @Cudd_RecursiveDeref(ptr noundef %89, ptr noundef %90)
  %91 = load double, ptr %12, align 8
  %92 = fptosi double %91 to i32
  %93 = load ptr, ptr %9, align 8
  store i32 %92, ptr %93, align 4
  %94 = load ptr, ptr %10, align 8
  %95 = ptrtoint ptr %94 to i64
  %96 = and i64 %95, -2
  %97 = inttoptr i64 %96 to ptr
  %98 = getelementptr inbounds %struct.DdNode, ptr %97, i32 0, i32 1
  %99 = load i32, ptr %98, align 4
  %100 = add i32 %99, -1
  store i32 %100, ptr %98, align 4
  %101 = load ptr, ptr %10, align 8
  store ptr %101, ptr %5, align 8
  br label %102

102:                                              ; preds = %81, %78, %51, %28
  %103 = load ptr, ptr %5, align 8
  ret ptr %103
}