; Function Attrs: nounwind uwtable
define ptr @Cudd_bddClosestCube(ptr noundef initializes((448, 452)) %0, ptr noundef %1, ptr noundef %2, ptr noundef writeonly captures(none) %3) #0 {
  %5 = getelementptr inbounds nuw i8, ptr %0, i64 448
  br label %6

6:                                                ; preds = %6, %4
  store i32 0, ptr %5, align 8
  %7 = tail call ptr @cuddBddClosestCube(ptr noundef %0, ptr noundef %1, ptr noundef %2, double noundef 0x41E0000000000000)
  %8 = load i32, ptr %5, align 8
  %9 = icmp eq i32 %8, 1
  br i1 %9, label %6, label %10, !llvm.loop !19

10:                                               ; preds = %6
  %11 = icmp eq ptr %7, null
  br i1 %11, label %84, label %12

12:                                               ; preds = %10
  %13 = ptrtoint ptr %7 to i64
  %14 = and i64 %13, -2
  %15 = inttoptr i64 %14 to ptr
  %16 = getelementptr inbounds nuw i8, ptr %15, i64 4
  %17 = load i32, ptr %16, align 4
  %18 = add i32 %17, 1
  store i32 %18, ptr %16, align 4
  %19 = getelementptr inbounds nuw i8, ptr %7, i64 16
  %20 = getelementptr inbounds nuw i8, ptr %0, i64 48
  %21 = getelementptr inbounds nuw i8, ptr %7, i64 24
  %22 = getelementptr inbounds nuw i8, ptr %0, i64 40
  br label %23

23:                                               ; preds = %separateCube.exit, %12
  store i32 0, ptr %5, align 8
  %24 = load i32, ptr %15, align 8
  %25 = icmp eq i32 %24, 2147483647
  br i1 %25, label %26, label %30

26:                                               ; preds = %23
  %27 = load ptr, ptr %22, align 8
  %28 = icmp eq ptr %7, %27
  %29 = select i1 %28, double 0.000000e+00, double 0x41E0000000000000
  br label %separateCube.exit

30:                                               ; preds = %23
  %31 = load ptr, ptr %19, align 8
  %32 = ptrtoint ptr %31 to i64
  %33 = and i64 %32, -2
  %34 = inttoptr i64 %33 to ptr
  %35 = load i32, ptr %34, align 8
  %36 = icmp eq i32 %35, 2147483647
  br i1 %36, label %37, label %47

37:                                               ; preds = %30
  %38 = getelementptr inbounds nuw i8, ptr %31, i64 16
  %39 = load double, ptr %38, align 8
  %40 = fcmp ugt double %39, 0.000000e+00
  br i1 %40, label %47, label %41

41:                                               ; preds = %37
  %42 = fneg double %39
  %43 = load i32, ptr %7, align 8
  %44 = load ptr, ptr %20, align 8
  %45 = load ptr, ptr %21, align 8
  %46 = tail call ptr @cuddUniqueInter(ptr noundef nonnull %0, i32 noundef %43, ptr noundef %44, ptr noundef %45) #6
  br label %separateCube.exit

47:                                               ; preds = %37, %30
  %48 = load ptr, ptr %21, align 8
  %49 = getelementptr inbounds nuw i8, ptr %48, i64 16
  %50 = load double, ptr %49, align 8
  %51 = fneg double %50
  %52 = load i32, ptr %7, align 8
  %53 = load ptr, ptr %20, align 8
  %54 = tail call ptr @cuddUniqueInter(ptr noundef nonnull %0, i32 noundef %52, ptr noundef %31, ptr noundef %53) #6
  br label %separateCube.exit

separateCube.exit:                                ; preds = %26, %41, %47
  %.034 = phi double [ %29, %26 ], [ %51, %47 ], [ %42, %41 ]
  %.0.i = phi ptr [ %7, %26 ], [ %54, %47 ], [ %46, %41 ]
  %55 = load i32, ptr %5, align 8
  %56 = icmp eq i32 %55, 1
  br i1 %56, label %23, label %57, !llvm.loop !20

57:                                               ; preds = %separateCube.exit
  %58 = icmp eq ptr %.0.i, null
  br i1 %58, label %59, label %60

59:                                               ; preds = %57
  tail call void @Cudd_RecursiveDeref(ptr noundef nonnull %0, ptr noundef nonnull %7) #6
  br label %84

60:                                               ; preds = %57
  %61 = ptrtoint ptr %.0.i to i64
  %62 = and i64 %61, -2
  %63 = inttoptr i64 %62 to ptr
  %64 = getelementptr inbounds nuw i8, ptr %63, i64 4
  %65 = load i32, ptr %64, align 4
  %66 = add i32 %65, 1
  store i32 %66, ptr %64, align 4
  tail call void @Cudd_RecursiveDeref(ptr noundef nonnull %0, ptr noundef nonnull %7) #6
  br label %67

67:                                               ; preds = %67, %60
  store i32 0, ptr %5, align 8
  %68 = tail call ptr @cuddAddBddDoPattern(ptr noundef nonnull %0, ptr noundef nonnull %.0.i) #6
  %69 = load i32, ptr %5, align 8
  %70 = icmp eq i32 %69, 1
  br i1 %70, label %67, label %71, !llvm.loop !21

71:                                               ; preds = %67
  %72 = icmp eq ptr %68, null
  br i1 %72, label %73, label %74

73:                                               ; preds = %71
  tail call void @Cudd_RecursiveDeref(ptr noundef nonnull %0, ptr noundef nonnull %.0.i) #6
  br label %84

74:                                               ; preds = %71
  %75 = ptrtoint ptr %68 to i64
  %76 = and i64 %75, -2
  %77 = inttoptr i64 %76 to ptr
  %78 = getelementptr inbounds nuw i8, ptr %77, i64 4
  %79 = load i32, ptr %78, align 4
  %80 = add i32 %79, 1
  store i32 %80, ptr %78, align 4
  tail call void @Cudd_RecursiveDeref(ptr noundef nonnull %0, ptr noundef nonnull %.0.i) #6
  %81 = fptosi double %.034 to i32
  store i32 %81, ptr %3, align 4
  %82 = load i32, ptr %78, align 4
  %83 = add i32 %82, -1
  store i32 %83, ptr %78, align 4
  br label %84

84:                                               ; preds = %10, %74, %73, %59
  %.0 = phi ptr [ null, %59 ], [ null, %73 ], [ %68, %74 ], [ null, %10 ]
  ret ptr %.0
}